target datalayout = "e-m:e-p270:32:32-p271:32:32-p272:64:64-i64:64-i128:128-f80:128-n8:16:32:64-S128"
target triple = "x86_64-pc-linux-gnu"

%"class.std::vector.5" = type { %"struct.std::_Vector_base.6" }
%"struct.std::_Vector_base.6" = type { %"struct.std::_Vector_base<float, std::allocator<float>>::_Vector_impl" }
%"struct.std::_Vector_base<float, std::allocator<float>>::_Vector_impl" = type { %"struct.std::_Vector_base<float, std::allocator<float>>::_Vector_impl_data" }
%"struct.std::_Vector_base<float, std::allocator<float>>::_Vector_impl_data" = type { ptr, ptr, ptr }
%"struct.faiss::FlatCodesDistanceComputer" = type { %"struct.faiss::DistanceComputer", ptr, i64 }
%"struct.faiss::DistanceComputer" = type { ptr }
%"struct.faiss::(anonymous namespace)::AQDistanceComputerLUT.22" = type <{ %"struct.faiss::FlatCodesDistanceComputer", %"class.std::vector.5", ptr, i64, float, [4 x i8] }>

; Function Attrs: mustprogress nounwind uwtable
define linkonce_odr noundef ptr @_ZNKSt6vectorIfSaIfEE11_M_data_ptrIfEEPT_S4_(ptr noundef nonnull align 8 dereferenceable(24) %0, ptr noundef %1) #0 comdat align 2 {
  %3 = alloca ptr, align 8
  %4 = alloca ptr, align 8
  store ptr %0, ptr %3, align 8
  store ptr %1, ptr %4, align 8
  %5 = load ptr, ptr %4, align 8
  ret ptr %5
}

; Function Attrs: mustprogress nounwind uwtable
define linkonce_odr noundef ptr @_ZNSt6vectorIfSaIfEE4dataEv(ptr noundef nonnull align 8 dereferenceable(24) %0) #0 comdat align 2 {
  %2 = alloca ptr, align 8
  store ptr %0, ptr %2, align 8
  %3 = load ptr, ptr %2, align 8
  %4 = getelementptr inbounds %"struct.std::_Vector_base.6", ptr %3, i32 0, i32 0
  %5 = getelementptr inbounds %"struct.std::_Vector_base<float, std::allocator<float>>::_Vector_impl_data", ptr %4, i32 0, i32 0
  %6 = load ptr, ptr %5, align 8
  %7 = call noundef ptr @_ZNKSt6vectorIfSaIfEE11_M_data_ptrIfEEPT_S4_(ptr noundef nonnull align 8 dereferenceable(24) %3, ptr noundef %6) #11
  ret ptr %7
}

; Function Attrs: mustprogress uwtable
define internal noundef float @_ZN5faiss12_GLOBAL__N_121AQDistanceComputerLUTILb0ELNS_17AdditiveQuantizer13Search_type_tE1EE13symmetric_disEll(ptr noundef nonnull align 8 dereferenceable(68) %0, i64 noundef %1, i64 noundef %2) unnamed_addr #2 align 2 {
  %4 = alloca ptr, align 8
  %5 = alloca i64, align 8
  %6 = alloca i64, align 8
  %7 = alloca ptr, align 8
  store ptr %0, ptr %4, align 8
  store i64 %1, ptr %5, align 8
  store i64 %2, ptr %6, align 8
  %8 = load ptr, ptr %4, align 8
  %9 = getelementptr inbounds %"struct.faiss::(anonymous namespace)::AQDistanceComputerLUT.22", ptr %8, i32 0, i32 1
  %10 = call noundef ptr @_ZNSt6vectorIfSaIfEE4dataEv(ptr noundef nonnull align 8 dereferenceable(24) %9) #11
  store ptr %10, ptr %7, align 8
  %11 = getelementptr inbounds %"struct.faiss::(anonymous namespace)::AQDistanceComputerLUT.22", ptr %8, i32 0, i32 2
  %12 = load ptr, ptr %11, align 8
  %13 = getelementptr inbounds %"struct.faiss::FlatCodesDistanceComputer", ptr %8, i32 0, i32 1
  %14 = load ptr, ptr %13, align 8
  %15 = load i64, ptr %5, align 8
  %16 = getelementptr inbounds %"struct.faiss::(anonymous namespace)::AQDistanceComputerLUT.22", ptr %8, i32 0, i32 3
  %17 = load i64, ptr %16, align 8
  %18 = mul i64 %15, %17
  %19 = getelementptr inbounds i8, ptr %14, i64 %18
  %20 = load ptr, ptr %7, align 8
  %21 = load ptr, ptr %12, align 8
  %22 = getelementptr inbounds ptr, ptr %21, i64 2
  %23 = load ptr, ptr %22, align 8
  call void %23(ptr noundef nonnull align 8 dereferenceable(308) %12, ptr noundef %19, ptr noundef %20, i64 noundef 1)
  %24 = getelementptr inbounds %"struct.faiss::(anonymous namespace)::AQDistanceComputerLUT.22", ptr %8, i32 0, i32 2
  %25 = load ptr, ptr %24, align 8
  %26 = getelementptr inbounds %"struct.faiss::FlatCodesDistanceComputer", ptr %8, i32 0, i32 1
  %27 = load ptr, ptr %26, align 8
  %28 = load i64, ptr %6, align 8
  %29 = getelementptr inbounds %"struct.faiss::(anonymous namespace)::AQDistanceComputerLUT.22", ptr %8, i32 0, i32 3
  %30 = load i64, ptr %29, align 8
  %31 = mul i64 %28, %30
  %32 = getelementptr inbounds i8, ptr %27, i64 %31
  %33 = load ptr, ptr %7, align 8
  %34 = getelementptr inbounds %"struct.faiss::(anonymous namespace)::AQDistanceComputerLUT.22", ptr %8, i32 0, i32 3
  %35 = load i64, ptr %34, align 8
  %36 = getelementptr inbounds float, ptr %33, i64 %35
  %37 = load ptr, ptr %25, align 8
  %38 = getelementptr inbounds ptr, ptr %37, i64 2
  %39 = load ptr, ptr %38, align 8
  call void %39(ptr noundef nonnull align 8 dereferenceable(308) %25, ptr noundef %32, ptr noundef %36, i64 noundef 1)
  %40 = load ptr, ptr %7, align 8
  %41 = load ptr, ptr %7, align 8
  %42 = getelementptr inbounds %"struct.faiss::(anonymous namespace)::AQDistanceComputerLUT.22", ptr %8, i32 0, i32 3
  %43 = load i64, ptr %42, align 8
  %44 = getelementptr inbounds float, ptr %41, i64 %43
  %45 = getelementptr inbounds %"struct.faiss::(anonymous namespace)::AQDistanceComputerLUT.22", ptr %8, i32 0, i32 3
  %46 = load i64, ptr %45, align 8
  %47 = call noundef float @_ZN5faiss10fvec_L2sqrEPKfS1_m(ptr noundef %40, ptr noundef %44, i64 noundef %46)
  ret float %47
}