; Function Attrs: mustprogress uwtable
define internal noundef float @_ZN5faiss12_GLOBAL__N_121AQDistanceComputerLUTILb0ELNS_17AdditiveQuantizer13Search_type_tE1EE13symmetric_disEll(ptr nocapture noundef nonnull readonly align 8 dereferenceable(68) %0, i64 noundef %1, i64 noundef %2) unnamed_addr #2 align 2 {
  %4 = getelementptr inbounds i8, ptr %0, i64 24
  %5 = load ptr, ptr %4, align 8
  %6 = getelementptr inbounds i8, ptr %0, i64 48
  %7 = load ptr, ptr %6, align 8
  %8 = getelementptr inbounds i8, ptr %0, i64 8
  %9 = load ptr, ptr %8, align 8
  %10 = getelementptr inbounds i8, ptr %0, i64 56
  %11 = load i64, ptr %10, align 8
  %12 = mul i64 %11, %1
  %13 = getelementptr inbounds i8, ptr %9, i64 %12
  %14 = load ptr, ptr %7, align 8
  %15 = getelementptr inbounds i8, ptr %14, i64 16
  %16 = load ptr, ptr %15, align 8
  tail call void %16(ptr noundef nonnull align 8 dereferenceable(308) %7, ptr noundef %13, ptr noundef %5, i64 noundef 1)
  %17 = load ptr, ptr %6, align 8
  %18 = load ptr, ptr %8, align 8
  %19 = load i64, ptr %10, align 8
  %20 = mul i64 %19, %2
  %21 = getelementptr inbounds i8, ptr %18, i64 %20
  %22 = getelementptr inbounds float, ptr %5, i64 %19
  %23 = load ptr, ptr %17, align 8
  %24 = getelementptr inbounds i8, ptr %23, i64 16
  %25 = load ptr, ptr %24, align 8
  tail call void %25(ptr noundef nonnull align 8 dereferenceable(308) %17, ptr noundef %21, ptr noundef %22, i64 noundef 1)
  %26 = load i64, ptr %10, align 8
  %27 = getelementptr inbounds float, ptr %5, i64 %26
  %28 = tail call noundef float @_ZN5faiss10fvec_L2sqrEPKfS1_m(ptr noundef %5, ptr noundef %27, i64 noundef %26)
  ret float %28
}